target datalayout = "e-m:e-p270:32:32-p271:32:32-p272:64:64-i64:64-i128:128-f80:128-n8:16:32:64-S128"
target triple = "x86_64-pc-linux-gnu"

%struct.Msat_Solver_t_ = type { i32, i32, ptr, ptr, double, double, ptr, ptr, double, double, ptr, ptr, ptr, i32, i32, ptr, ptr, ptr, ptr, ptr, ptr, i32, double, i32, double, ptr, ptr, ptr, ptr, i32, ptr, ptr, ptr, ptr, %struct.Msat_SolverStats_t_, i32, i32, i32, i32, i32, i32 }
%struct.Msat_SolverStats_t_ = type { i64, i64, i64, i64, i64, i64 }

; Function Attrs: nounwind uwtable
define void @Msat_SolverFree(ptr noundef %0) #0 {
  %2 = alloca ptr, align 8
  %3 = alloca i32, align 4
  %4 = alloca i32, align 4
  %5 = alloca ptr, align 8
  store ptr %0, ptr %2, align 8, !tbaa !3
  call void @llvm.lifetime.start.p0(i64 4, ptr %3) #7
  call void @llvm.lifetime.start.p0(i64 4, ptr %4) #7
  call void @llvm.lifetime.start.p0(i64 8, ptr %5) #7
  %6 = load ptr, ptr %2, align 8, !tbaa !3
  %7 = getelementptr inbounds nuw %struct.Msat_Solver_t_, ptr %6, i32 0, i32 2
  %8 = load ptr, ptr %7, align 8, !tbaa !42
  %9 = call i32 @Msat_ClauseVecReadSize(ptr noundef %8)
  store i32 %9, ptr %4, align 4, !tbaa !29
  %10 = load ptr, ptr %2, align 8, !tbaa !3
  %11 = getelementptr inbounds nuw %struct.Msat_Solver_t_, ptr %10, i32 0, i32 2
  %12 = load ptr, ptr %11, align 8, !tbaa !42
  %13 = call ptr @Msat_ClauseVecReadArray(ptr noundef %12)
  store ptr %13, ptr %5, align 8, !tbaa !78
  store i32 0, ptr %3, align 4, !tbaa !29
  br label %14

14:                                               ; preds = %25, %1
  %15 = load i32, ptr %3, align 4, !tbaa !29
  %16 = load i32, ptr %4, align 4, !tbaa !29
  %17 = icmp slt i32 %15, %16
  br i1 %17, label %18, label %28

18:                                               ; preds = %14
  %19 = load ptr, ptr %2, align 8, !tbaa !3
  %20 = load ptr, ptr %5, align 8, !tbaa !78
  %21 = load i32, ptr %3, align 4, !tbaa !29
  %22 = sext i32 %21 to i64
  %23 = getelementptr inbounds ptr, ptr %20, i64 %22
  %24 = load ptr, ptr %23, align 8, !tbaa !73
  call void @Msat_ClauseFree(ptr noundef %19, ptr noundef %24, i32 noundef 0)
  br label %25

25:                                               ; preds = %18
  %26 = load i32, ptr %3, align 4, !tbaa !29
  %27 = add nsw i32 %26, 1
  store i32 %27, ptr %3, align 4, !tbaa !29
  br label %14, !llvm.loop !85

28:                                               ; preds = %14
  %29 = load ptr, ptr %2, align 8, !tbaa !3
  %30 = getelementptr inbounds nuw %struct.Msat_Solver_t_, ptr %29, i32 0, i32 2
  %31 = load ptr, ptr %30, align 8, !tbaa !42
  call void @Msat_ClauseVecFree(ptr noundef %31)
  %32 = load ptr, ptr %2, align 8, !tbaa !3
  %33 = getelementptr inbounds nuw %struct.Msat_Solver_t_, ptr %32, i32 0, i32 3
  %34 = load ptr, ptr %33, align 8, !tbaa !31
  %35 = call i32 @Msat_ClauseVecReadSize(ptr noundef %34)
  store i32 %35, ptr %4, align 4, !tbaa !29
  %36 = load ptr, ptr %2, align 8, !tbaa !3
  %37 = getelementptr inbounds nuw %struct.Msat_Solver_t_, ptr %36, i32 0, i32 3
  %38 = load ptr, ptr %37, align 8, !tbaa !31
  %39 = call ptr @Msat_ClauseVecReadArray(ptr noundef %38)
  store ptr %39, ptr %5, align 8, !tbaa !78
  store i32 0, ptr %3, align 4, !tbaa !29
  br label %40

40:                                               ; preds = %51, %28
  %41 = load i32, ptr %3, align 4, !tbaa !29
  %42 = load i32, ptr %4, align 4, !tbaa !29
  %43 = icmp slt i32 %41, %42
  br i1 %43, label %44, label %54

44:                                               ; preds = %40
  %45 = load ptr, ptr %2, align 8, !tbaa !3
  %46 = load ptr, ptr %5, align 8, !tbaa !78
  %47 = load i32, ptr %3, align 4, !tbaa !29
  %48 = sext i32 %47 to i64
  %49 = getelementptr inbounds ptr, ptr %46, i64 %48
  %50 = load ptr, ptr %49, align 8, !tbaa !73
  call void @Msat_ClauseFree(ptr noundef %45, ptr noundef %50, i32 noundef 0)
  br label %51

51:                                               ; preds = %44
  %52 = load i32, ptr %3, align 4, !tbaa !29
  %53 = add nsw i32 %52, 1
  store i32 %53, ptr %3, align 4, !tbaa !29
  br label %40, !llvm.loop !86

54:                                               ; preds = %40
  %55 = load ptr, ptr %2, align 8, !tbaa !3
  %56 = getelementptr inbounds nuw %struct.Msat_Solver_t_, ptr %55, i32 0, i32 3
  %57 = load ptr, ptr %56, align 8, !tbaa !31
  call void @Msat_ClauseVecFree(ptr noundef %57)
  %58 = load ptr, ptr %2, align 8, !tbaa !3
  %59 = getelementptr inbounds nuw %struct.Msat_Solver_t_, ptr %58, i32 0, i32 6
  %60 = load ptr, ptr %59, align 8, !tbaa !53
  %61 = icmp ne ptr %60, null
  br i1 %61, label %62, label %68

62:                                               ; preds = %54
  %63 = load ptr, ptr %2, align 8, !tbaa !3
  %64 = getelementptr inbounds nuw %struct.Msat_Solver_t_, ptr %63, i32 0, i32 6
  %65 = load ptr, ptr %64, align 8, !tbaa !53
  call void @free(ptr noundef %65) #7
  %66 = load ptr, ptr %2, align 8, !tbaa !3
  %67 = getelementptr inbounds nuw %struct.Msat_Solver_t_, ptr %66, i32 0, i32 6
  store ptr null, ptr %67, align 8, !tbaa !53
  br label %69

68:                                               ; preds = %54
  br label %69

69:                                               ; preds = %68, %62
  %70 = load ptr, ptr %2, align 8, !tbaa !3
  %71 = getelementptr inbounds nuw %struct.Msat_Solver_t_, ptr %70, i32 0, i32 7
  %72 = load ptr, ptr %71, align 8, !tbaa !44
  %73 = icmp ne ptr %72, null
  br i1 %73, label %74, label %80

74:                                               ; preds = %69
  %75 = load ptr, ptr %2, align 8, !tbaa !3
  %76 = getelementptr inbounds nuw %struct.Msat_Solver_t_, ptr %75, i32 0, i32 7
  %77 = load ptr, ptr %76, align 8, !tbaa !44
  call void @free(ptr noundef %77) #7
  %78 = load ptr, ptr %2, align 8, !tbaa !3
  %79 = getelementptr inbounds nuw %struct.Msat_Solver_t_, ptr %78, i32 0, i32 7
  store ptr null, ptr %79, align 8, !tbaa !44
  br label %81

80:                                               ; preds = %69
  br label %81

81:                                               ; preds = %80, %74
  %82 = load ptr, ptr %2, align 8, !tbaa !3
  %83 = getelementptr inbounds nuw %struct.Msat_Solver_t_, ptr %82, i32 0, i32 10
  %84 = load ptr, ptr %83, align 8, !tbaa !59
  call void @Msat_OrderFree(ptr noundef %84)
  store i32 0, ptr %3, align 4, !tbaa !29
  br label %85

85:                                               ; preds = %100, %81
  %86 = load i32, ptr %3, align 4, !tbaa !29
  %87 = load ptr, ptr %2, align 8, !tbaa !3
  %88 = getelementptr inbounds nuw %struct.Msat_Solver_t_, ptr %87, i32 0, i32 14
  %89 = load i32, ptr %88, align 4, !tbaa !25
  %90 = mul nsw i32 2, %89
  %91 = icmp slt i32 %86, %90
  br i1 %91, label %92, label %103

92:                                               ; preds = %85
  %93 = load ptr, ptr %2, align 8, !tbaa !3
  %94 = getelementptr inbounds nuw %struct.Msat_Solver_t_, ptr %93, i32 0, i32 11
  %95 = load ptr, ptr %94, align 8, !tbaa !32
  %96 = load i32, ptr %3, align 4, !tbaa !29
  %97 = sext i32 %96 to i64
  %98 = getelementptr inbounds ptr, ptr %95, i64 %97
  %99 = load ptr, ptr %98, align 8, !tbaa !60
  call void @Msat_ClauseVecFree(ptr noundef %99)
  br label %100

100:                                              ; preds = %92
  %101 = load i32, ptr %3, align 4, !tbaa !29
  %102 = add nsw i32 %101, 1
  store i32 %102, ptr %3, align 4, !tbaa !29
  br label %85, !llvm.loop !87

103:                                              ; preds = %85
  %104 = load ptr, ptr %2, align 8, !tbaa !3
  %105 = getelementptr inbounds nuw %struct.Msat_Solver_t_, ptr %104, i32 0, i32 11
  %106 = load ptr, ptr %105, align 8, !tbaa !32
  %107 = icmp ne ptr %106, null
  br i1 %107, label %108, label %114

108:                                              ; preds = %103
  %109 = load ptr, ptr %2, align 8, !tbaa !3
  %110 = getelementptr inbounds nuw %struct.Msat_Solver_t_, ptr %109, i32 0, i32 11
  %111 = load ptr, ptr %110, align 8, !tbaa !32
  call void @free(ptr noundef %111) #7
  %112 = load ptr, ptr %2, align 8, !tbaa !3
  %113 = getelementptr inbounds nuw %struct.Msat_Solver_t_, ptr %112, i32 0, i32 11
  store ptr null, ptr %113, align 8, !tbaa !32
  br label %115

114:                                              ; preds = %103
  br label %115

115:                                              ; preds = %114, %108
  %116 = load ptr, ptr %2, align 8, !tbaa !3
  %117 = getelementptr inbounds nuw %struct.Msat_Solver_t_, ptr %116, i32 0, i32 12
  %118 = load ptr, ptr %117, align 8, !tbaa !62
  call void @Msat_QueueFree(ptr noundef %118)
  %119 = load ptr, ptr %2, align 8, !tbaa !3
  %120 = getelementptr inbounds nuw %struct.Msat_Solver_t_, ptr %119, i32 0, i32 15
  %121 = load ptr, ptr %120, align 8, !tbaa !30
  %122 = icmp ne ptr %121, null
  br i1 %122, label %123, label %129

123:                                              ; preds = %115
  %124 = load ptr, ptr %2, align 8, !tbaa !3
  %125 = getelementptr inbounds nuw %struct.Msat_Solver_t_, ptr %124, i32 0, i32 15
  %126 = load ptr, ptr %125, align 8, !tbaa !30
  call void @free(ptr noundef %126) #7
  %127 = load ptr, ptr %2, align 8, !tbaa !3
  %128 = getelementptr inbounds nuw %struct.Msat_Solver_t_, ptr %127, i32 0, i32 15
  store ptr null, ptr %128, align 8, !tbaa !30
  br label %130

129:                                              ; preds = %115
  br label %130

130:                                              ; preds = %129, %123
  %131 = load ptr, ptr %2, align 8, !tbaa !3
  %132 = getelementptr inbounds nuw %struct.Msat_Solver_t_, ptr %131, i32 0, i32 16
  %133 = load ptr, ptr %132, align 8, !tbaa !33
  %134 = icmp ne ptr %133, null
  br i1 %134, label %135, label %141

135:                                              ; preds = %130
  %136 = load ptr, ptr %2, align 8, !tbaa !3
  %137 = getelementptr inbounds nuw %struct.Msat_Solver_t_, ptr %136, i32 0, i32 16
  %138 = load ptr, ptr %137, align 8, !tbaa !33
  call void @free(ptr noundef %138) #7
  %139 = load ptr, ptr %2, align 8, !tbaa !3
  %140 = getelementptr inbounds nuw %struct.Msat_Solver_t_, ptr %139, i32 0, i32 16
  store ptr null, ptr %140, align 8, !tbaa !33
  br label %142

141:                                              ; preds = %130
  br label %142

142:                                              ; preds = %141, %135
  %143 = load ptr, ptr %2, align 8, !tbaa !3
  %144 = getelementptr inbounds nuw %struct.Msat_Solver_t_, ptr %143, i32 0, i32 17
  %145 = load ptr, ptr %144, align 8, !tbaa !63
  call void @Msat_IntVecFree(ptr noundef %145)
  %146 = load ptr, ptr %2, align 8, !tbaa !3
  %147 = getelementptr inbounds nuw %struct.Msat_Solver_t_, ptr %146, i32 0, i32 18
  %148 = load ptr, ptr %147, align 8, !tbaa !26
  call void @Msat_IntVecFree(ptr noundef %148)
  %149 = load ptr, ptr %2, align 8, !tbaa !3
  %150 = getelementptr inbounds nuw %struct.Msat_Solver_t_, ptr %149, i32 0, i32 19
  %151 = load ptr, ptr %150, align 8, !tbaa !28
  %152 = icmp ne ptr %151, null
  br i1 %152, label %153, label %159

153:                                              ; preds = %142
  %154 = load ptr, ptr %2, align 8, !tbaa !3
  %155 = getelementptr inbounds nuw %struct.Msat_Solver_t_, ptr %154, i32 0, i32 19
  %156 = load ptr, ptr %155, align 8, !tbaa !28
  call void @free(ptr noundef %156) #7
  %157 = load ptr, ptr %2, align 8, !tbaa !3
  %158 = getelementptr inbounds nuw %struct.Msat_Solver_t_, ptr %157, i32 0, i32 19
  store ptr null, ptr %158, align 8, !tbaa !28
  br label %160

159:                                              ; preds = %142
  br label %160

160:                                              ; preds = %159, %153
  %161 = load ptr, ptr %2, align 8, !tbaa !3
  %162 = getelementptr inbounds nuw %struct.Msat_Solver_t_, ptr %161, i32 0, i32 20
  %163 = load ptr, ptr %162, align 8, !tbaa !27
  %164 = icmp ne ptr %163, null
  br i1 %164, label %165, label %171

165:                                              ; preds = %160
  %166 = load ptr, ptr %2, align 8, !tbaa !3
  %167 = getelementptr inbounds nuw %struct.Msat_Solver_t_, ptr %166, i32 0, i32 20
  %168 = load ptr, ptr %167, align 8, !tbaa !27
  call void @free(ptr noundef %168) #7
  %169 = load ptr, ptr %2, align 8, !tbaa !3
  %170 = getelementptr inbounds nuw %struct.Msat_Solver_t_, ptr %169, i32 0, i32 20
  store ptr null, ptr %170, align 8, !tbaa !27
  br label %172

171:                                              ; preds = %160
  br label %172

172:                                              ; preds = %171, %165
  %173 = load ptr, ptr %2, align 8, !tbaa !3
  %174 = getelementptr inbounds nuw %struct.Msat_Solver_t_, ptr %173, i32 0, i32 33
  %175 = load ptr, ptr %174, align 8, !tbaa !36
  call void @Msat_MmStepStop(ptr noundef %175, i32 noundef 0)
  %176 = load ptr, ptr %2, align 8, !tbaa !3
  %177 = getelementptr inbounds nuw %struct.Msat_Solver_t_, ptr %176, i32 0, i32 27
  %178 = load ptr, ptr %177, align 8, !tbaa !45
  %179 = call i32 @Msat_ClauseVecReadSize(ptr noundef %178)
  store i32 %179, ptr %4, align 4, !tbaa !29
  %180 = load ptr, ptr %2, align 8, !tbaa !3
  %181 = getelementptr inbounds nuw %struct.Msat_Solver_t_, ptr %180, i32 0, i32 27
  %182 = load ptr, ptr %181, align 8, !tbaa !45
  %183 = call ptr @Msat_ClauseVecReadArray(ptr noundef %182)
  store ptr %183, ptr %5, align 8, !tbaa !78
  store i32 0, ptr %3, align 4, !tbaa !29
  br label %184

184:                                              ; preds = %194, %172
  %185 = load i32, ptr %3, align 4, !tbaa !29
  %186 = load i32, ptr %4, align 4, !tbaa !29
  %187 = icmp slt i32 %185, %186
  br i1 %187, label %188, label %197

188:                                              ; preds = %184
  %189 = load ptr, ptr %5, align 8, !tbaa !78
  %190 = load i32, ptr %3, align 4, !tbaa !29
  %191 = sext i32 %190 to i64
  %192 = getelementptr inbounds ptr, ptr %189, i64 %191
  %193 = load ptr, ptr %192, align 8, !tbaa !73
  call void @Msat_IntVecFree(ptr noundef %193)
  br label %194

194:                                              ; preds = %188
  %195 = load i32, ptr %3, align 4, !tbaa !29
  %196 = add nsw i32 %195, 1
  store i32 %196, ptr %3, align 4, !tbaa !29
  br label %184, !llvm.loop !88

197:                                              ; preds = %184
  %198 = load ptr, ptr %2, align 8, !tbaa !3
  %199 = getelementptr inbounds nuw %struct.Msat_Solver_t_, ptr %198, i32 0, i32 27
  %200 = load ptr, ptr %199, align 8, !tbaa !45
  call void @Msat_ClauseVecFree(ptr noundef %200)
  %201 = load ptr, ptr %2, align 8, !tbaa !3
  %202 = getelementptr inbounds nuw %struct.Msat_Solver_t_, ptr %201, i32 0, i32 25
  %203 = load ptr, ptr %202, align 8, !tbaa !46
  call void @Msat_IntVecFree(ptr noundef %203)
  %204 = load ptr, ptr %2, align 8, !tbaa !3
  %205 = getelementptr inbounds nuw %struct.Msat_Solver_t_, ptr %204, i32 0, i32 26
  %206 = load ptr, ptr %205, align 8, !tbaa !47
  call void @Msat_IntVecFree(ptr noundef %206)
  %207 = load ptr, ptr %2, align 8, !tbaa !3
  %208 = getelementptr inbounds nuw %struct.Msat_Solver_t_, ptr %207, i32 0, i32 28
  %209 = load ptr, ptr %208, align 8, !tbaa !37
  %210 = icmp ne ptr %209, null
  br i1 %210, label %211, label %217

211:                                              ; preds = %197
  %212 = load ptr, ptr %2, align 8, !tbaa !3
  %213 = getelementptr inbounds nuw %struct.Msat_Solver_t_, ptr %212, i32 0, i32 28
  %214 = load ptr, ptr %213, align 8, !tbaa !37
  call void @free(ptr noundef %214) #7
  %215 = load ptr, ptr %2, align 8, !tbaa !3
  %216 = getelementptr inbounds nuw %struct.Msat_Solver_t_, ptr %215, i32 0, i32 28
  store ptr null, ptr %216, align 8, !tbaa !37
  br label %218

217:                                              ; preds = %197
  br label %218

218:                                              ; preds = %217, %211
  %219 = load ptr, ptr %2, align 8, !tbaa !3
  %220 = getelementptr inbounds nuw %struct.Msat_Solver_t_, ptr %219, i32 0, i32 30
  %221 = load ptr, ptr %220, align 8, !tbaa !68
  call void @Msat_IntVecFree(ptr noundef %221)
  %222 = load ptr, ptr %2, align 8, !tbaa !3
  %223 = getelementptr inbounds nuw %struct.Msat_Solver_t_, ptr %222, i32 0, i32 31
  %224 = load ptr, ptr %223, align 8, !tbaa !69
  call void @Msat_IntVecFree(ptr noundef %224)
  %225 = load ptr, ptr %2, align 8, !tbaa !3
  %226 = icmp ne ptr %225, null
  br i1 %226, label %227, label %229

227:                                              ; preds = %218
  %228 = load ptr, ptr %2, align 8, !tbaa !3
  call void @free(ptr noundef %228) #7
  store ptr null, ptr %2, align 8, !tbaa !3
  br label %230

229:                                              ; preds = %218
  br label %230

230:                                              ; preds = %229, %227
  call void @llvm.lifetime.end.p0(i64 8, ptr %5) #7
  call void @llvm.lifetime.end.p0(i64 4, ptr %4) #7
  call void @llvm.lifetime.end.p0(i64 4, ptr %3) #7
  ret void
}