; Function Attrs: nounwind uwtable
define void @Msat_SolverFree(ptr noundef %0) local_unnamed_addr #1 {
  %2 = getelementptr inbounds nuw i8, ptr %0, i64 8
  %3 = load ptr, ptr %2, align 8, !tbaa !40
  %4 = tail call i32 @Msat_ClauseVecReadSize(ptr noundef %3) #11
  %5 = load ptr, ptr %2, align 8, !tbaa !40
  %6 = tail call ptr @Msat_ClauseVecReadArray(ptr noundef %5) #11
  %7 = icmp sgt i32 %4, 0
  br i1 %7, label %.lr.ph.preheader, label %._crit_edge

.lr.ph.preheader:                                 ; preds = %1
  %wide.trip.count = zext nneg i32 %4 to i64
  br label %.lr.ph

.lr.ph:                                           ; preds = %.lr.ph.preheader, %.lr.ph
  %indvars.iv = phi i64 [ 0, %.lr.ph.preheader ], [ %indvars.iv.next, %.lr.ph ]
  %8 = getelementptr inbounds nuw ptr, ptr %6, i64 %indvars.iv
  %9 = load ptr, ptr %8, align 8, !tbaa !69
  tail call void @Msat_ClauseFree(ptr noundef %0, ptr noundef %9, i32 noundef 0) #11
  %indvars.iv.next = add nuw nsw i64 %indvars.iv, 1
  %exitcond.not = icmp eq i64 %indvars.iv.next, %wide.trip.count
  br i1 %exitcond.not, label %._crit_edge, label %.lr.ph, !llvm.loop !78

._crit_edge:                                      ; preds = %.lr.ph, %1
  %10 = load ptr, ptr %2, align 8, !tbaa !40
  tail call void @Msat_ClauseVecFree(ptr noundef %10) #11
  %11 = getelementptr inbounds nuw i8, ptr %0, i64 16
  %12 = load ptr, ptr %11, align 8, !tbaa !29
  %13 = tail call i32 @Msat_ClauseVecReadSize(ptr noundef %12) #11
  %14 = load ptr, ptr %11, align 8, !tbaa !29
  %15 = tail call ptr @Msat_ClauseVecReadArray(ptr noundef %14) #11
  %16 = icmp sgt i32 %13, 0
  br i1 %16, label %.lr.ph85.preheader, label %._crit_edge86

.lr.ph85.preheader:                               ; preds = %._crit_edge
  %wide.trip.count99 = zext nneg i32 %13 to i64
  br label %.lr.ph85

.lr.ph85:                                         ; preds = %.lr.ph85.preheader, %.lr.ph85
  %indvars.iv96 = phi i64 [ 0, %.lr.ph85.preheader ], [ %indvars.iv.next97, %.lr.ph85 ]
  %17 = getelementptr inbounds nuw ptr, ptr %15, i64 %indvars.iv96
  %18 = load ptr, ptr %17, align 8, !tbaa !69
  tail call void @Msat_ClauseFree(ptr noundef %0, ptr noundef %18, i32 noundef 0) #11
  %indvars.iv.next97 = add nuw nsw i64 %indvars.iv96, 1
  %exitcond100.not = icmp eq i64 %indvars.iv.next97, %wide.trip.count99
  br i1 %exitcond100.not, label %._crit_edge86, label %.lr.ph85, !llvm.loop !79

._crit_edge86:                                    ; preds = %.lr.ph85, %._crit_edge
  %19 = load ptr, ptr %11, align 8, !tbaa !29
  tail call void @Msat_ClauseVecFree(ptr noundef %19) #11
  %20 = getelementptr inbounds nuw i8, ptr %0, i64 40
  %21 = load ptr, ptr %20, align 8, !tbaa !50
  %.not = icmp eq ptr %21, null
  br i1 %.not, label %23, label %22

22:                                               ; preds = %._crit_edge86
  tail call void @free(ptr noundef nonnull %21) #11
  store ptr null, ptr %20, align 8, !tbaa !50
  br label %23

23:                                               ; preds = %._crit_edge86, %22
  %24 = getelementptr inbounds nuw i8, ptr %0, i64 48
  %25 = load ptr, ptr %24, align 8, !tbaa !42
  %.not74 = icmp eq ptr %25, null
  br i1 %.not74, label %27, label %26

26:                                               ; preds = %23
  tail call void @free(ptr noundef nonnull %25) #11
  store ptr null, ptr %24, align 8, !tbaa !42
  br label %27

27:                                               ; preds = %23, %26
  %28 = getelementptr inbounds nuw i8, ptr %0, i64 72
  %29 = load ptr, ptr %28, align 8, !tbaa !56
  tail call void @Msat_OrderFree(ptr noundef %29) #11
  %30 = getelementptr inbounds nuw i8, ptr %0, i64 100
  %31 = load i32, ptr %30, align 4, !tbaa !23
  %32 = icmp sgt i32 %31, 0
  br i1 %32, label %.lr.ph89, label %._crit_edge90

.lr.ph89:                                         ; preds = %27
  %33 = getelementptr inbounds nuw i8, ptr %0, i64 80
  br label %34

34:                                               ; preds = %.lr.ph89, %34
  %indvars.iv101 = phi i64 [ 0, %.lr.ph89 ], [ %indvars.iv.next102, %34 ]
  %35 = load ptr, ptr %33, align 8, !tbaa !30
  %36 = getelementptr inbounds nuw ptr, ptr %35, i64 %indvars.iv101
  %37 = load ptr, ptr %36, align 8, !tbaa !57
  tail call void @Msat_ClauseVecFree(ptr noundef %37) #11
  %indvars.iv.next102 = add nuw nsw i64 %indvars.iv101, 1
  %38 = load i32, ptr %30, align 4, !tbaa !23
  %39 = shl nsw i32 %38, 1
  %40 = sext i32 %39 to i64
  %41 = icmp slt i64 %indvars.iv.next102, %40
  br i1 %41, label %34, label %._crit_edge90, !llvm.loop !80

._crit_edge90:                                    ; preds = %34, %27
  %42 = getelementptr inbounds nuw i8, ptr %0, i64 80
  %43 = load ptr, ptr %42, align 8, !tbaa !30
  %.not75 = icmp eq ptr %43, null
  br i1 %.not75, label %45, label %44

44:                                               ; preds = %._crit_edge90
  tail call void @free(ptr noundef nonnull %43) #11
  store ptr null, ptr %42, align 8, !tbaa !30
  br label %45

45:                                               ; preds = %._crit_edge90, %44
  %46 = getelementptr inbounds nuw i8, ptr %0, i64 88
  %47 = load ptr, ptr %46, align 8, !tbaa !59
  tail call void @Msat_QueueFree(ptr noundef %47) #11
  %48 = getelementptr inbounds nuw i8, ptr %0, i64 104
  %49 = load ptr, ptr %48, align 8, !tbaa !27
  %.not76 = icmp eq ptr %49, null
  br i1 %.not76, label %51, label %50

50:                                               ; preds = %45
  tail call void @free(ptr noundef nonnull %49) #11
  store ptr null, ptr %48, align 8, !tbaa !27
  br label %51

51:                                               ; preds = %45, %50
  %52 = getelementptr inbounds nuw i8, ptr %0, i64 112
  %53 = load ptr, ptr %52, align 8, !tbaa !31
  %.not77 = icmp eq ptr %53, null
  br i1 %.not77, label %55, label %54

54:                                               ; preds = %51
  tail call void @free(ptr noundef nonnull %53) #11
  store ptr null, ptr %52, align 8, !tbaa !31
  br label %55

55:                                               ; preds = %51, %54
  %56 = getelementptr inbounds nuw i8, ptr %0, i64 120
  %57 = load ptr, ptr %56, align 8, !tbaa !60
  tail call void @Msat_IntVecFree(ptr noundef %57) #11
  %58 = getelementptr inbounds nuw i8, ptr %0, i64 128
  %59 = load ptr, ptr %58, align 8, !tbaa !24
  tail call void @Msat_IntVecFree(ptr noundef %59) #11
  %60 = getelementptr inbounds nuw i8, ptr %0, i64 136
  %61 = load ptr, ptr %60, align 8, !tbaa !26
  %.not78 = icmp eq ptr %61, null
  br i1 %.not78, label %63, label %62

62:                                               ; preds = %55
  tail call void @free(ptr noundef nonnull %61) #11
  store ptr null, ptr %60, align 8, !tbaa !26
  br label %63

63:                                               ; preds = %55, %62
  %64 = getelementptr inbounds nuw i8, ptr %0, i64 144
  %65 = load ptr, ptr %64, align 8, !tbaa !25
  %.not79 = icmp eq ptr %65, null
  br i1 %.not79, label %67, label %66

66:                                               ; preds = %63
  tail call void @free(ptr noundef nonnull %65) #11
  store ptr null, ptr %64, align 8, !tbaa !25
  br label %67

67:                                               ; preds = %63, %66
  %68 = getelementptr inbounds nuw i8, ptr %0, i64 248
  %69 = load ptr, ptr %68, align 8, !tbaa !34
  tail call void @Msat_MmStepStop(ptr noundef %69, i32 noundef 0) #11
  %70 = getelementptr inbounds nuw i8, ptr %0, i64 200
  %71 = load ptr, ptr %70, align 8, !tbaa !43
  %72 = tail call i32 @Msat_ClauseVecReadSize(ptr noundef %71) #11
  %73 = load ptr, ptr %70, align 8, !tbaa !43
  %74 = tail call ptr @Msat_ClauseVecReadArray(ptr noundef %73) #11
  %75 = icmp sgt i32 %72, 0
  br i1 %75, label %.lr.ph93.preheader, label %._crit_edge94

.lr.ph93.preheader:                               ; preds = %67
  %wide.trip.count107 = zext nneg i32 %72 to i64
  br label %.lr.ph93

.lr.ph93:                                         ; preds = %.lr.ph93.preheader, %.lr.ph93
  %indvars.iv104 = phi i64 [ 0, %.lr.ph93.preheader ], [ %indvars.iv.next105, %.lr.ph93 ]
  %76 = getelementptr inbounds nuw ptr, ptr %74, i64 %indvars.iv104
  %77 = load ptr, ptr %76, align 8, !tbaa !69
  tail call void @Msat_IntVecFree(ptr noundef %77) #11
  %indvars.iv.next105 = add nuw nsw i64 %indvars.iv104, 1
  %exitcond108.not = icmp eq i64 %indvars.iv.next105, %wide.trip.count107
  br i1 %exitcond108.not, label %._crit_edge94, label %.lr.ph93, !llvm.loop !81

._crit_edge94:                                    ; preds = %.lr.ph93, %67
  %78 = load ptr, ptr %70, align 8, !tbaa !43
  tail call void @Msat_ClauseVecFree(ptr noundef %78) #11
  %79 = getelementptr inbounds nuw i8, ptr %0, i64 184
  %80 = load ptr, ptr %79, align 8, !tbaa !44
  tail call void @Msat_IntVecFree(ptr noundef %80) #11
  %81 = getelementptr inbounds nuw i8, ptr %0, i64 192
  %82 = load ptr, ptr %81, align 8, !tbaa !45
  tail call void @Msat_IntVecFree(ptr noundef %82) #11
  %83 = getelementptr inbounds nuw i8, ptr %0, i64 208
  %84 = load ptr, ptr %83, align 8, !tbaa !35
  %.not80 = icmp eq ptr %84, null
  br i1 %.not80, label %86, label %85

85:                                               ; preds = %._crit_edge94
  tail call void @free(ptr noundef nonnull %84) #11
  store ptr null, ptr %83, align 8, !tbaa !35
  br label %86

86:                                               ; preds = %._crit_edge94, %85
  %87 = getelementptr inbounds nuw i8, ptr %0, i64 224
  %88 = load ptr, ptr %87, align 8, !tbaa !64
  tail call void @Msat_IntVecFree(ptr noundef %88) #11
  %89 = getelementptr inbounds nuw i8, ptr %0, i64 232
  %90 = load ptr, ptr %89, align 8, !tbaa !65
  tail call void @Msat_IntVecFree(ptr noundef %90) #11
  tail call void @free(ptr noundef nonnull %0) #11
  ret void
}